Certificate:
    Data:
        Version: 3 (0x2)
        Serial Number: 0 (0x0)
        Signature Algorithm: md5WithRSAEncryption
        Issuer: C=US, ST=California, L=San Francisco, CN=Root CA/emailAddress=rootca@kir.nu
        Validity
            Not Before: Dec 27 06:33:36 2004 GMT
            Not After : Dec 25 06:33:36 2014 GMT
        Subject: C=US, ST=California, L=San Francisco, CN=Root CA/emailAddress=rootca@kir.nu
        Subject Public Key Info:
            Public Key Algorithm: rsaEncryption
            RSA Public Key: (2048 bit)
                Modulus (2048 bit):
                    00:e8:a3:c2:c1:53:13:12:f5:a4:e9:e4:22:ac:cb:
                    0f:8d:d9:a9:08:56:e0:e2:7f:58:e8:b8:8f:97:55:
                    91:28:fd:45:2b:87:72:4c:23:dc:8b:af:6c:4d:02:
                    76:dd:65:0f:53:ae:78:5a:71:d8:ad:14:99:1f:66:
                    eb:2b:fe:ff:df:fa:15:af:8d:76:63:67:9f:d8:f5:
                    26:f9:5b:36:d7:d1:a2:ee:8e:cc:5d:ff:55:1f:83:
                    a9:f9:88:0e:51:53:5d:f1:f5:6a:7d:41:db:a6:92:
                    bf:fc:75:56:d4:46:dd:7b:28:c9:5f:40:7b:12:81:
                    2c:a2:64:80:9c:68:e5:10:12:cd:61:c5:a2:69:b2:
                    26:2f:a0:4b:2e:ae:1e:95:1b:f0:0d:3a:23:1a:6d:
                    bf:5e:97:ae:1c:80:d3:e5:e6:9d:39:4a:e4:df:12:
                    21:19:26:17:c1:4f:76:e9:ff:23:e6:64:23:09:b6:
                    71:af:be:86:a5:cc:23:b4:02:68:97:5c:35:95:38:
                    9e:37:e0:7e:25:de:9b:fb:9c:d6:ea:e7:07:01:00:
                    a9:3f:38:70:a7:6b:1d:b9:e6:f3:f0:66:ae:16:0f:
                    d1:41:b9:c8:f2:2d:dc:d1:d2:6e:63:f1:af:e4:5c:
                    52:46:5a:32:f8:63:2d:1b:86:50:a0:35:ad:b1:87:
                    22:eb
                Exponent: 65537 (0x10001)
        X509v3 extensions:
            X509v3 Subject Key Identifier: 
                3F:AA:3C:5F:19:D6:EC:E1:E5:5B:99:17:4A:B0:FC:D6:82:27:F0:02
            X509v3 Authority Key Identifier: 
                keyid:3F:AA:3C:5F:19:D6:EC:E1:E5:5B:99:17:4A:B0:FC:D6:82:27:F0:02
                DirName:/C=US/ST=California/L=San Francisco/CN=Root CA/emailAddress=rootca@kir.nu
                serial:00

            X509v3 Basic Constraints: 
                CA:TRUE
    Signature Algorithm: md5WithRSAEncryption
        04:df:34:bf:c7:47:0f:31:2b:dc:1a:91:c0:ee:97:c6:2b:24:
        92:f9:95:92:b4:86:49:f6:df:34:00:1e:a3:5d:99:70:d4:e2:
        04:7f:d6:5e:cc:48:0e:45:ab:03:91:f8:8e:93:f1:6e:5f:df:
        e6:08:5c:58:1b:07:b9:9a:ca:97:06:f1:1d:45:fc:91:a1:1a:
        e9:af:3c:96:88:20:69:a0:de:c2:52:06:54:3f:94:6e:a2:f0:
        e0:65:5f:4f:4a:3b:b3:3e:44:89:34:04:0b:c8:1a:ad:a8:3b:
        32:1e:5e:62:2f:a7:28:42:be:ee:7b:a4:24:1a:c5:1c:7f:c0:
        1a:fb:09:34:43:88:2d:46:eb:08:ed:8f:53:83:ca:a0:7b:9f:
        19:e2:21:58:2b:60:3d:3d:bf:0f:09:37:81:e4:f7:26:46:b4:
        19:f0:8a:17:bb:ec:27:c6:b7:e1:fd:47:a1:33:b8:ba:9a:41:
        70:9d:a1:10:46:39:30:d7:4f:a0:b8:4b:bc:9d:ef:10:4a:ff:
        c3:a1:f3:77:ac:2d:01:88:5c:98:d3:f1:0d:c3:3e:19:68:48:
        5f:f4:ce:66:a7:81:02:04:c0:b2:3e:d0:91:af:2d:04:02:58:
        fe:bc:e9:ce:26:80:8a:41:c1:71:1b:35:ad:8b:1f:81:c0:3d:
        cb:f0:80:38
-----BEGIN CERTIFICATE-----
MIIEFzCCAv+gAwIBAgIBADANBgkqhkiG9w0BAQQFADBqMQswCQYDVQQGEwJVUzET
MBEGA1UECBMKQ2FsaWZvcm5pYTEWMBQGA1UEBxMNU2FuIEZyYW5jaXNjbzEQMA4G
A1UEAxMHUm9vdCBDQTEcMBoGCSqGSIb3DQEJARYNcm9vdGNhQGtpci5udTAeFw0w
NDEyMjcwNjMzMzZaFw0xNDEyMjUwNjMzMzZaMGoxCzAJBgNVBAYTAlVTMRMwEQYD
VQQIEwpDYWxpZm9ybmlhMRYwFAYDVQQHEw1TYW4gRnJhbmNpc2NvMRAwDgYDVQQD
EwdSb290IENBMRwwGgYJKoZIhvcNAQkBFg1yb290Y2FAa2lyLm51MIIBIjANBgkq
hkiG9w0BAQEFAAOCAQ8AMIIBCgKCAQEA6KPCwVMTEvWk6eQirMsPjdmpCFbg4n9Y
6LiPl1WRKP1FK4dyTCPci69sTQJ23WUPU654WnHYrRSZH2brK/7/3/oVr412Y2ef
2PUm+Vs219Gi7o7MXf9VH4Op+YgOUVNd8fVqfUHbppK//HVW1EbdeyjJX0B7EoEs
omSAnGjlEBLNYcWiabImL6BLLq4elRvwDTojGm2/XpeuHIDT5eadOUrk3xIhGSYX
wU926f8j5mQjCbZxr76GpcwjtAJol1w1lTieN+B+Jd6b+5zW6ucHAQCpPzhwp2sd
uebz8GauFg/RQbnI8i3c0dJuY/Gv5FxSRloy+GMtG4ZQoDWtsYci6wIDAQABo4HH
MIHEMB0GA1UdDgQWBBQ/qjxfGdbs4eVbmRdKsPzWgifwAjCBlAYDVR0jBIGMMIGJ
gBQ/qjxfGdbs4eVbmRdKsPzWgifwAqFupGwwajELMAkGA1UEBhMCVVMxEzARBgNV
BAgTCkNhbGlmb3JuaWExFjAUBgNVBAcTDVNhbiBGcmFuY2lzY28xEDAOBgNVBAMT
B1Jvb3QgQ0ExHDAaBgkqhkiG9w0BCQEWDXJvb3RjYUBraXIubnWCAQAwDAYDVR0T
BAUwAwEB/zANBgkqhkiG9w0BAQQFAAOCAQEABN80v8dHDzEr3BqRwO6XxiskkvmV
krSGSfbfNAAeo12ZcNTiBH/WXsxIDkWrA5H4jpPxbl/f5ghcWBsHuZrKlwbxHUX8
kaEa6a88loggaaDewlIGVD+UbqLw4GVfT0o7sz5EiTQEC8garag7Mh5eYi+nKEK+
7nukJBrFHH/AGvsJNEOILUbrCO2PU4PKoHufGeIhWCtgPT2/Dwk3geT3Jka0GfCK
F7vsJ8a34f1HoTO4uppBcJ2hEEY5MNdPoLhLvJ3vEEr/w6Hzd6wtAYhcmNPxDcM+
GWhIX/TOZqeBAgTAsj7Qka8tBAJY/rzpziaAikHBcRs1rYsfgcA9y/CAOA==
-----END CERTIFICATE-----
Certificate:
    Data:
        Version: 3 (0x2)
        Serial Number: 11 (0xb)
        Signature Algorithm: md5WithRSAEncryption
        Issuer: C=US, ST=California, L=San Francisco, CN=Root CA/emailAddress=rootca@kir.nu
        Validity
            Not Before: Dec 28 03:54:09 2004 GMT
            Not After : Dec 26 03:54:09 2014 GMT
        Subject: C=US, ST=California, L=San Francisco, CN=Intermediate CA/emailAddress=i-ca@kir.nu
        Subject Public Key Info:
            Public Key Algorithm: rsaEncryption
            RSA Public Key: (2048 bit)
                Modulus (2048 bit):
                    00:99:49:b1:1e:9c:be:5c:11:1d:bc:c4:b8:1b:c4:
                    cb:16:e6:5f:28:a6:24:8c:b1:e6:b3:f2:05:5f:35:
                    72:19:ea:d1:3e:bd:45:3e:da:cd:9a:23:51:29:95:
                    02:88:9b:3e:74:8b:1c:51:cd:c8:9c:24:53:18:4d:
                    3c:0d:14:eb:cc:38:ef:f9:7e:4b:c8:ba:cf:07:73:
                    bf:ad:76:cc:ef:7d:14:3f:31:ff:1e:d8:7f:8e:f5:
                    17:34:fe:46:cd:dc:dc:cd:f5:78:94:88:bf:3a:84:
                    4f:42:28:d3:cf:a0:c3:bb:59:21:20:b0:6c:b8:f1:
                    3d:b1:12:d8:eb:62:bd:a4:25:d5:9f:1c:1b:ce:91:
                    d0:61:58:44:bd:35:44:7a:67:12:0c:89:2d:ac:64:
                    c4:0b:64:21:51:30:f4:a4:2e:00:87:01:a9:24:7e:
                    33:44:07:f9:54:2b:f4:96:1f:25:28:8c:7e:8e:42:
                    77:78:ee:7c:98:1c:d2:df:74:ca:ef:4e:58:25:a7:
                    33:35:e4:3a:0b:b4:a4:04:f4:30:c3:9c:50:3c:ff:
                    d2:2d:d5:d7:1a:85:4b:7c:2e:73:5d:d2:36:0d:b4:
                    05:03:70:e4:3e:53:98:c6:61:c8:88:a9:c4:6f:81:
                    44:5f:8b:86:f2:e2:0f:c5:7c:f5:21:23:4d:60:f0:
                    23:45
                Exponent: 65537 (0x10001)
        X509v3 extensions:
            X509v3 Subject Key Identifier: 
                4D:84:28:EE:E5:0B:0E:92:1D:35:7E:20:44:5A:DD:A6:62:40:A0:54
            X509v3 Authority Key Identifier: 
                keyid:3F:AA:3C:5F:19:D6:EC:E1:E5:5B:99:17:4A:B0:FC:D6:82:27:F0:02
                DirName:/C=US/ST=California/L=San Francisco/CN=Root CA/emailAddress=rootca@kir.nu
                serial:00

            X509v3 Basic Constraints: 
                CA:TRUE
    Signature Algorithm: md5WithRSAEncryption
        39:02:f5:d5:9f:b6:4c:91:d3:e8:09:96:a5:c7:ac:2a:49:28:
        03:01:8d:ca:f4:21:11:0b:e7:14:a8:50:72:79:91:8b:25:39:
        88:18:fd:f0:b2:49:d4:2e:25:41:f2:20:aa:eb:e9:9d:6f:50:
        5a:09:9e:46:cc:e8:da:82:a4:4c:cd:57:a9:59:2f:31:c8:09:
        10:9d:af:dc:57:10:7f:54:c8:f5:77:79:f0:a9:c9:a1:23:e7:
        fb:99:52:c9:46:44:c0:0c:ef:f8:08:89:78:ec:e8:ec:74:7d:
        60:3b:89:99:1f:be:ef:c0:6c:f5:71:93:a0:21:58:99:ab:09:
        35:2f:a8:a3:5a:c7:df:79:b4:9e:2a:40:92:f4:8c:15:73:33:
        74:76:d2:c3:21:68:ed:e6:51:d1:8d:90:b1:77:e9:94:5e:e4:
        44:2a:d4:aa:9c:eb:55:87:b2:19:2a:bd:f2:15:13:80:34:82:
        45:d3:cd:f9:4c:56:aa:76:22:a3:49:96:a5:6b:67:69:31:d8:
        70:ca:6a:2f:f8:a8:0a:9e:2d:18:1a:61:db:d0:89:cc:d5:a5:
        af:94:95:84:9c:49:81:2b:1d:a4:b7:b6:c1:a0:f8:9b:b3:e0:
        46:a4:7e:8c:f6:df:80:38:86:7d:e8:5d:1f:28:67:f4:38:29:
        46:8b:b6:61
-----BEGIN CERTIFICATE-----
MIIEHTCCAwWgAwIBAgIBCzANBgkqhkiG9w0BAQQFADBqMQswCQYDVQQGEwJVUzET
MBEGA1UECBMKQ2FsaWZvcm5pYTEWMBQGA1UEBxMNU2FuIEZyYW5jaXNjbzEQMA4G
A1UEAxMHUm9vdCBDQTEcMBoGCSqGSIb3DQEJARYNcm9vdGNhQGtpci5udTAeFw0w
NDEyMjgwMzU0MDlaFw0xNDEyMjYwMzU0MDlaMHAxCzAJBgNVBAYTAlVTMRMwEQYD
VQQIEwpDYWxpZm9ybmlhMRYwFAYDVQQHEw1TYW4gRnJhbmNpc2NvMRgwFgYDVQQD
Ew9JbnRlcm1lZGlhdGUgQ0ExGjAYBgkqhkiG9w0BCQEWC2ktY2FAa2lyLm51MIIB
IjANBgkqhkiG9w0BAQEFAAOCAQ8AMIIBCgKCAQEAmUmxHpy+XBEdvMS4G8TLFuZf
KKYkjLHms/IFXzVyGerRPr1FPtrNmiNRKZUCiJs+dIscUc3InCRTGE08DRTrzDjv
+X5LyLrPB3O/rXbM730UPzH/Hth/jvUXNP5GzdzczfV4lIi/OoRPQijTz6DDu1kh
ILBsuPE9sRLY62K9pCXVnxwbzpHQYVhEvTVEemcSDIktrGTEC2QhUTD0pC4AhwGp
JH4zRAf5VCv0lh8lKIx+jkJ3eO58mBzS33TK705YJaczNeQ6C7SkBPQww5xQPP/S
LdXXGoVLfC5zXdI2DbQFA3DkPlOYxmHIiKnEb4FEX4uG8uIPxXz1ISNNYPAjRQID
AQABo4HHMIHEMB0GA1UdDgQWBBRNhCju5QsOkh01fiBEWt2mYkCgVDCBlAYDVR0j
BIGMMIGJgBQ/qjxfGdbs4eVbmRdKsPzWgifwAqFupGwwajELMAkGA1UEBhMCVVMx
EzARBgNVBAgTCkNhbGlmb3JuaWExFjAUBgNVBAcTDVNhbiBGcmFuY2lzY28xEDAO
BgNVBAMTB1Jvb3QgQ0ExHDAaBgkqhkiG9w0BCQEWDXJvb3RjYUBraXIubnWCAQAw
DAYDVR0TBAUwAwEB/zANBgkqhkiG9w0BAQQFAAOCAQEAOQL11Z+2TJHT6AmWpces
KkkoAwGNyvQhEQvnFKhQcnmRiyU5iBj98LJJ1C4lQfIgquvpnW9QWgmeRszo2oKk
TM1XqVkvMcgJEJ2v3FcQf1TI9Xd58KnJoSPn+5lSyUZEwAzv+AiJeOzo7HR9YDuJ
mR++78Bs9XGToCFYmasJNS+oo1rH33m0nipAkvSMFXMzdHbSwyFo7eZR0Y2QsXfp
lF7kRCrUqpzrVYeyGSq98hUTgDSCRdPN+UxWqnYio0mWpWtnaTHYcMpqL/ioCp4t
GBph29CJzNWlr5SVhJxJgSsdpLe2waD4m7PgRqR+jPbfgDiGfehdHyhn9DgpRou2
YQ==
-----END CERTIFICATE-----
